target datalayout = "e-m:e-p270:32:32-p271:32:32-p272:64:64-i64:64-i128:128-f80:128-n8:16:32:64-S128"
target triple = "x86_64-pc-linux-gnu"

@.str.2 = private unnamed_addr constant [7 x i8] c"HPE_OK\00", align 1
@.str.3 = private unnamed_addr constant [13 x i8] c"HPE_INTERNAL\00", align 1
@.str.4 = private unnamed_addr constant [11 x i8] c"HPE_STRICT\00", align 1
@.str.5 = private unnamed_addr constant [16 x i8] c"HPE_CR_EXPECTED\00", align 1
@.str.6 = private unnamed_addr constant [16 x i8] c"HPE_LF_EXPECTED\00", align 1
@.str.7 = private unnamed_addr constant [30 x i8] c"HPE_UNEXPECTED_CONTENT_LENGTH\00", align 1
@.str.8 = private unnamed_addr constant [21 x i8] c"HPE_UNEXPECTED_SPACE\00", align 1
@.str.9 = private unnamed_addr constant [22 x i8] c"HPE_CLOSED_CONNECTION\00", align 1
@.str.10 = private unnamed_addr constant [19 x i8] c"HPE_INVALID_METHOD\00", align 1
@.str.11 = private unnamed_addr constant [16 x i8] c"HPE_INVALID_URL\00", align 1
@.str.12 = private unnamed_addr constant [21 x i8] c"HPE_INVALID_CONSTANT\00", align 1
@.str.13 = private unnamed_addr constant [20 x i8] c"HPE_INVALID_VERSION\00", align 1
@.str.14 = private unnamed_addr constant [25 x i8] c"HPE_INVALID_HEADER_TOKEN\00", align 1
@.str.15 = private unnamed_addr constant [27 x i8] c"HPE_INVALID_CONTENT_LENGTH\00", align 1
@.str.16 = private unnamed_addr constant [23 x i8] c"HPE_INVALID_CHUNK_SIZE\00", align 1
@.str.17 = private unnamed_addr constant [19 x i8] c"HPE_INVALID_STATUS\00", align 1
@.str.18 = private unnamed_addr constant [22 x i8] c"HPE_INVALID_EOF_STATE\00", align 1
@.str.19 = private unnamed_addr constant [30 x i8] c"HPE_INVALID_TRANSFER_ENCODING\00", align 1
@.str.20 = private unnamed_addr constant [21 x i8] c"HPE_CB_MESSAGE_BEGIN\00", align 1
@.str.21 = private unnamed_addr constant [24 x i8] c"HPE_CB_HEADERS_COMPLETE\00", align 1
@.str.22 = private unnamed_addr constant [24 x i8] c"HPE_CB_MESSAGE_COMPLETE\00", align 1
@.str.23 = private unnamed_addr constant [20 x i8] c"HPE_CB_CHUNK_HEADER\00", align 1
@.str.24 = private unnamed_addr constant [22 x i8] c"HPE_CB_CHUNK_COMPLETE\00", align 1
@.str.25 = private unnamed_addr constant [11 x i8] c"HPE_PAUSED\00", align 1
@.str.26 = private unnamed_addr constant [19 x i8] c"HPE_PAUSED_UPGRADE\00", align 1
@.str.27 = private unnamed_addr constant [22 x i8] c"HPE_PAUSED_H2_UPGRADE\00", align 1
@.str.28 = private unnamed_addr constant [9 x i8] c"HPE_USER\00", align 1
@.str.29 = private unnamed_addr constant [20 x i8] c"HPE_CB_URL_COMPLETE\00", align 1
@.str.30 = private unnamed_addr constant [23 x i8] c"HPE_CB_STATUS_COMPLETE\00", align 1
@.str.31 = private unnamed_addr constant [23 x i8] c"HPE_CB_METHOD_COMPLETE\00", align 1
@.str.32 = private unnamed_addr constant [24 x i8] c"HPE_CB_VERSION_COMPLETE\00", align 1
@.str.33 = private unnamed_addr constant [29 x i8] c"HPE_CB_HEADER_FIELD_COMPLETE\00", align 1
@.str.34 = private unnamed_addr constant [29 x i8] c"HPE_CB_HEADER_VALUE_COMPLETE\00", align 1
@.str.35 = private unnamed_addr constant [37 x i8] c"HPE_CB_CHUNK_EXTENSION_NAME_COMPLETE\00", align 1
@.str.36 = private unnamed_addr constant [38 x i8] c"HPE_CB_CHUNK_EXTENSION_VALUE_COMPLETE\00", align 1
@.str.37 = private unnamed_addr constant [13 x i8] c"HPE_CB_RESET\00", align 1

; Function Attrs: nounwind uwtable
define ptr @llhttp_errno_name(i32 noundef %0) #0 {
  %2 = alloca ptr, align 8
  %3 = alloca i32, align 4
  store i32 %0, ptr %3, align 4, !tbaa !8
  %4 = load i32, ptr %3, align 4, !tbaa !8
  switch i32 %4, label %41 [
    i32 0, label %5
    i32 1, label %6
    i32 2, label %7
    i32 25, label %8
    i32 3, label %9
    i32 4, label %10
    i32 30, label %11
    i32 5, label %12
    i32 6, label %13
    i32 7, label %14
    i32 8, label %15
    i32 9, label %16
    i32 10, label %17
    i32 11, label %18
    i32 12, label %19
    i32 13, label %20
    i32 14, label %21
    i32 15, label %22
    i32 16, label %23
    i32 17, label %24
    i32 18, label %25
    i32 19, label %26
    i32 20, label %27
    i32 21, label %28
    i32 22, label %29
    i32 23, label %30
    i32 24, label %31
    i32 26, label %32
    i32 27, label %33
    i32 32, label %34
    i32 33, label %35
    i32 28, label %36
    i32 29, label %37
    i32 34, label %38
    i32 35, label %39
    i32 31, label %40
  ]

5:                                                ; preds = %1
  store ptr @.str.2, ptr %2, align 8
  br label %42

6:                                                ; preds = %1
  store ptr @.str.3, ptr %2, align 8
  br label %42

7:                                                ; preds = %1
  store ptr @.str.4, ptr %2, align 8
  br label %42

8:                                                ; preds = %1
  store ptr @.str.5, ptr %2, align 8
  br label %42

9:                                                ; preds = %1
  store ptr @.str.6, ptr %2, align 8
  br label %42

10:                                               ; preds = %1
  store ptr @.str.7, ptr %2, align 8
  br label %42

11:                                               ; preds = %1
  store ptr @.str.8, ptr %2, align 8
  br label %42

12:                                               ; preds = %1
  store ptr @.str.9, ptr %2, align 8
  br label %42

13:                                               ; preds = %1
  store ptr @.str.10, ptr %2, align 8
  br label %42

14:                                               ; preds = %1
  store ptr @.str.11, ptr %2, align 8
  br label %42

15:                                               ; preds = %1
  store ptr @.str.12, ptr %2, align 8
  br label %42

16:                                               ; preds = %1
  store ptr @.str.13, ptr %2, align 8
  br label %42

17:                                               ; preds = %1
  store ptr @.str.14, ptr %2, align 8
  br label %42

18:                                               ; preds = %1
  store ptr @.str.15, ptr %2, align 8
  br label %42

19:                                               ; preds = %1
  store ptr @.str.16, ptr %2, align 8
  br label %42

20:                                               ; preds = %1
  store ptr @.str.17, ptr %2, align 8
  br label %42

21:                                               ; preds = %1
  store ptr @.str.18, ptr %2, align 8
  br label %42

22:                                               ; preds = %1
  store ptr @.str.19, ptr %2, align 8
  br label %42

23:                                               ; preds = %1
  store ptr @.str.20, ptr %2, align 8
  br label %42

24:                                               ; preds = %1
  store ptr @.str.21, ptr %2, align 8
  br label %42

25:                                               ; preds = %1
  store ptr @.str.22, ptr %2, align 8
  br label %42

26:                                               ; preds = %1
  store ptr @.str.23, ptr %2, align 8
  br label %42

27:                                               ; preds = %1
  store ptr @.str.24, ptr %2, align 8
  br label %42

28:                                               ; preds = %1
  store ptr @.str.25, ptr %2, align 8
  br label %42

29:                                               ; preds = %1
  store ptr @.str.26, ptr %2, align 8
  br label %42

30:                                               ; preds = %1
  store ptr @.str.27, ptr %2, align 8
  br label %42

31:                                               ; preds = %1
  store ptr @.str.28, ptr %2, align 8
  br label %42

32:                                               ; preds = %1
  store ptr @.str.29, ptr %2, align 8
  br label %42

33:                                               ; preds = %1
  store ptr @.str.30, ptr %2, align 8
  br label %42

34:                                               ; preds = %1
  store ptr @.str.31, ptr %2, align 8
  br label %42

35:                                               ; preds = %1
  store ptr @.str.32, ptr %2, align 8
  br label %42

36:                                               ; preds = %1
  store ptr @.str.33, ptr %2, align 8
  br label %42

37:                                               ; preds = %1
  store ptr @.str.34, ptr %2, align 8
  br label %42

38:                                               ; preds = %1
  store ptr @.str.35, ptr %2, align 8
  br label %42

39:                                               ; preds = %1
  store ptr @.str.36, ptr %2, align 8
  br label %42

40:                                               ; preds = %1
  store ptr @.str.37, ptr %2, align 8
  br label %42

41:                                               ; preds = %1
  call void @abort() #7
  unreachable

42:                                               ; preds = %40, %39, %38, %37, %36, %35, %34, %33, %32, %31, %30, %29, %28, %27, %26, %25, %24, %23, %22, %21, %20, %19, %18, %17, %16, %15, %14, %13, %12, %11, %10, %9, %8, %7, %6, %5
  %43 = load ptr, ptr %2, align 8
  ret ptr %43
}